target datalayout = "e-m:e-p270:32:32-p271:32:32-p272:64:64-i64:64-i128:128-f80:128-n8:16:32:64-S128"
target triple = "x86_64-pc-linux-gnu"

@.str.1007 = private unnamed_addr constant [13 x i8] c"%d.%02d.%02d\00", align 1

; Function Attrs: null_pointer_is_valid sspstrong uwtable
define internal void @version_number_computer(ptr noundef %0, i32 noundef %1) #0 {
  %3 = alloca ptr, align 8
  %4 = alloca i32, align 4
  %5 = alloca i32, align 4
  %6 = alloca i32, align 4
  %7 = alloca i32, align 4
  store ptr %0, ptr %3, align 8
  store i32 %1, ptr %4, align 4
  call void @llvm.lifetime.start.p0(i64 4, ptr %5) #8
  call void @llvm.lifetime.start.p0(i64 4, ptr %6) #8
  call void @llvm.lifetime.start.p0(i64 4, ptr %7) #8
  %8 = load i32, ptr %4, align 4
  %9 = udiv i32 %8, 10000
  store i32 %9, ptr %5, align 4
  %10 = load i32, ptr %4, align 4
  %11 = urem i32 %10, 10000
  %12 = udiv i32 %11, 100
  store i32 %12, ptr %6, align 4
  %13 = load i32, ptr %4, align 4
  %14 = urem i32 %13, 10000
  %15 = urem i32 %14, 100
  store i32 %15, ptr %7, align 4
  %16 = load ptr, ptr %3, align 8
  %17 = load ptr, ptr %3, align 8
  %18 = call i64 @llvm.objectsize.i64.p0(ptr %17, i1 false, i1 true, i1 true)
  %19 = load i32, ptr %5, align 4
  %20 = load i32, ptr %6, align 4
  %21 = load i32, ptr %7, align 4
  %22 = call i32 (ptr, i64, i32, i64, ptr, ...) @__snprintf_chk(ptr noundef %16, i64 noundef 240, i32 noundef 2, i64 noundef %18, ptr noundef @.str.1007, i32 noundef %19, i32 noundef %20, i32 noundef %21)
  call void @llvm.lifetime.end.p0(i64 4, ptr %7) #8
  call void @llvm.lifetime.end.p0(i64 4, ptr %6) #8
  call void @llvm.lifetime.end.p0(i64 4, ptr %5) #8
  ret void
}